target datalayout = "e-m:e-p270:32:32-p271:32:32-p272:64:64-i64:64-i128:128-f80:128-n8:16:32:64-S128"
target triple = "x86_64-pc-linux-gnu"

%struct.dt_pthread_mutex_t = type { %union.pthread_mutex_t }
%union.pthread_mutex_t = type { %struct.__pthread_mutex_s }
%struct.__pthread_mutex_s = type { i32, i32, i32, i32, i32, i16, i16, %struct.__pthread_internal_list }
%struct.__pthread_internal_list = type { ptr, ptr }
%struct.dt_iop_module_t = type { i32, ptr, ptr, ptr, ptr, ptr, ptr, ptr, ptr, ptr, ptr, ptr, ptr, ptr, ptr, ptr, ptr, ptr, ptr, ptr, ptr, ptr, ptr, ptr, ptr, ptr, ptr, ptr, ptr, ptr, ptr, ptr, ptr, ptr, ptr, ptr, ptr, ptr, ptr, ptr, ptr, ptr, ptr, ptr, ptr, ptr, ptr, ptr, ptr, ptr, ptr, ptr, ptr, ptr, ptr, ptr, ptr, [20 x i8], i32, i32, i32, i32, i32, i32, i32, [8 x i8], [4 x float], [4 x float], [4 x float], [4 x float], [4 x float], [4 x float], ptr, %struct.dt_dev_histogram_stats_t, [4 x i32], i32, i32, ptr, i32, i32, ptr, ptr, i32, ptr, %struct.dt_pthread_mutex_t, ptr, ptr, ptr, ptr, %struct.anon, ptr, ptr, ptr, ptr, ptr, ptr, ptr, i32, ptr, ptr, ptr, ptr, ptr, ptr, ptr, i32, ptr, i32, [128 x i8], i32, ptr, ptr, i32, [12 x i8] }
%struct.dt_dev_histogram_stats_t = type { i32, i64, i32, i32 }
%struct.anon = type { %struct.anon.0, %struct.anon.1 }
%struct.anon.0 = type { ptr, ptr }
%struct.anon.1 = type { ptr, i32 }
%struct.dt_iop_module_so_t = type { %struct.dt_action_t, ptr, ptr, ptr, ptr, ptr, ptr, ptr, ptr, ptr, ptr, ptr, ptr, ptr, ptr, ptr, ptr, ptr, ptr, ptr, ptr, ptr, ptr, ptr, ptr, ptr, ptr, ptr, ptr, ptr, ptr, ptr, ptr, ptr, ptr, ptr, ptr, ptr, ptr, ptr, ptr, ptr, ptr, ptr, ptr, ptr, ptr, ptr, ptr, ptr, ptr, ptr, ptr, ptr, ptr, ptr, ptr, [20 x i8], ptr, i32, ptr, i32, i32 }
%struct.dt_action_t = type { i32, ptr, ptr, ptr, ptr, ptr }
%struct.dt_introspection_type_header_t = type { i32, ptr, ptr, ptr, ptr, i64, i64, ptr }
%struct.dt_iop_module_section_t = type { i32, ptr, ptr }
%struct.dt_introspection_t = type { i32, i32, ptr, i64, ptr, i64, i64, ptr }
%struct.dt_introspection_type_enum_t = type { %struct.dt_introspection_type_header_t, i64, ptr, i32 }
%struct.dt_introspection_type_enum_tuple_t = type { ptr, i32, ptr }

@.str.2 = private unnamed_addr constant [2 x i8] c"_\00", align 1
@.str.3 = private unnamed_addr constant [2 x i8] c" \00", align 1
@.str.5 = private unnamed_addr constant [123 x i8] c"generated/home/dtcxzyw/WorkSpace/Projects/compilers/llvm-opt-benchmark/bench/darktable/darktable/src/develop/imageop_gui.c\00", align 1
@.str.6 = private unnamed_addr constant [3 x i8] c"no\00", align 1
@.str.7 = private unnamed_addr constant [4 x i8] c"yes\00", align 1
@.str.8 = private unnamed_addr constant [48 x i8] c"'%s' is not an enum/int/bool/combobox parameter\00", align 1
@__FUNCTION__.dt_bauhaus_combobox_from_params = private unnamed_addr constant [32 x i8] c"dt_bauhaus_combobox_from_params\00", align 1

; Function Attrs: nounwind uwtable
define internal void @_store_intro_section(ptr noundef %0, ptr noundef %1) #0 {
  %3 = alloca ptr, align 8
  %4 = alloca ptr, align 8
  %5 = alloca ptr, align 8
  store ptr %0, ptr %3, align 8, !tbaa !39
  store ptr %1, ptr %4, align 8, !tbaa !11
  %6 = load ptr, ptr %4, align 8, !tbaa !11
  %7 = icmp ne ptr %6, null
  br i1 %7, label %8, label %31

8:                                                ; preds = %2
  call void @llvm.lifetime.start.p0(i64 8, ptr %5) #9
  %9 = load ptr, ptr %3, align 8, !tbaa !39
  %10 = getelementptr inbounds nuw %struct.dt_introspection_type_header_t, ptr %9, i32 0, i32 7
  %11 = load ptr, ptr %10, align 8, !tbaa !42
  %12 = getelementptr inbounds nuw %struct.dt_iop_module_so_t, ptr %11, i32 0, i32 51
  %13 = load ptr, ptr %12, align 8, !tbaa !56
  %14 = call ptr %13()
  %15 = getelementptr inbounds nuw %struct.dt_introspection_t, ptr %14, i32 0, i32 7
  store ptr %15, ptr %5, align 8, !tbaa !57
  %16 = load ptr, ptr %5, align 8, !tbaa !57
  %17 = load ptr, ptr %16, align 8, !tbaa !59
  %18 = icmp ne ptr %17, null
  br i1 %18, label %22, label %19

19:                                               ; preds = %8
  %20 = call ptr @g_hash_table_new(ptr noundef null, ptr noundef null)
  %21 = load ptr, ptr %5, align 8, !tbaa !57
  store ptr %20, ptr %21, align 8, !tbaa !59
  br label %22

22:                                               ; preds = %19, %8
  %23 = load ptr, ptr %5, align 8, !tbaa !57
  %24 = load ptr, ptr %23, align 8, !tbaa !59
  %25 = load ptr, ptr %3, align 8, !tbaa !39
  %26 = getelementptr inbounds nuw %struct.dt_introspection_type_header_t, ptr %25, i32 0, i32 6
  %27 = load i64, ptr %26, align 8, !tbaa !42
  %28 = inttoptr i64 %27 to ptr
  %29 = load ptr, ptr %4, align 8, !tbaa !11
  %30 = call i32 @g_hash_table_insert(ptr noundef %24, ptr noundef %28, ptr noundef %29)
  call void @llvm.lifetime.end.p0(i64 8, ptr %5) #9
  br label %31

31:                                               ; preds = %22, %2
  ret void
}

; Function Attrs: nounwind uwtable
define internal ptr @_section_from_package(ptr noundef %0) #0 {
  %2 = alloca ptr, align 8
  %3 = alloca ptr, align 8
  %4 = alloca ptr, align 8
  store ptr %0, ptr %3, align 8, !tbaa !48
  %5 = load ptr, ptr %3, align 8, !tbaa !48
  %6 = load ptr, ptr %5, align 8, !tbaa !6
  %7 = getelementptr inbounds nuw %struct.dt_iop_module_t, ptr %6, i32 0, i32 0
  %8 = load i32, ptr %7, align 16, !tbaa !50
  %9 = icmp ne i32 %8, 8
  br i1 %9, label %10, label %11

10:                                               ; preds = %1
  store ptr null, ptr %2, align 8
  br label %21

11:                                               ; preds = %1
  call void @llvm.lifetime.start.p0(i64 8, ptr %4) #9
  %12 = load ptr, ptr %3, align 8, !tbaa !48
  %13 = load ptr, ptr %12, align 8, !tbaa !6
  store ptr %13, ptr %4, align 8, !tbaa !51
  %14 = load ptr, ptr %4, align 8, !tbaa !51
  %15 = getelementptr inbounds nuw %struct.dt_iop_module_section_t, ptr %14, i32 0, i32 1
  %16 = load ptr, ptr %15, align 8, !tbaa !53
  %17 = load ptr, ptr %3, align 8, !tbaa !48
  store ptr %16, ptr %17, align 8, !tbaa !6
  %18 = load ptr, ptr %4, align 8, !tbaa !51
  %19 = getelementptr inbounds nuw %struct.dt_iop_module_section_t, ptr %18, i32 0, i32 2
  %20 = load ptr, ptr %19, align 8, !tbaa !55
  store ptr %20, ptr %2, align 8
  call void @llvm.lifetime.end.p0(i64 8, ptr %4) #9
  br label %21

21:                                               ; preds = %11, %10
  %22 = load ptr, ptr %2, align 8
  ret ptr %22
}

; Function Attrs: nounwind uwtable
define ptr @dt_bauhaus_combobox_from_params(ptr noundef %0, ptr noundef %1) #0 {
  %3 = alloca ptr, align 8
  %4 = alloca ptr, align 8
  %5 = alloca ptr, align 8
  %6 = alloca ptr, align 8
  %7 = alloca ptr, align 8
  %8 = alloca ptr, align 8
  %9 = alloca ptr, align 8
  %10 = alloca ptr, align 8
  %11 = alloca ptr, align 8
  %12 = alloca [2 x ptr], align 8
  store ptr %0, ptr %3, align 8, !tbaa !6
  store ptr %1, ptr %4, align 8, !tbaa !11
  call void @llvm.lifetime.start.p0(i64 8, ptr %5) #9
  %13 = call ptr @_section_from_package(ptr noundef %3)
  store ptr %13, ptr %5, align 8, !tbaa !11
  call void @llvm.lifetime.start.p0(i64 8, ptr %6) #9
  %14 = load ptr, ptr %3, align 8, !tbaa !6
  %15 = getelementptr inbounds nuw %struct.dt_iop_module_t, ptr %14, i32 0, i32 80
  %16 = load ptr, ptr %15, align 8, !tbaa !13
  store ptr %16, ptr %6, align 8, !tbaa !30
  call void @llvm.lifetime.start.p0(i64 8, ptr %7) #9
  %17 = load ptr, ptr %3, align 8, !tbaa !6
  %18 = getelementptr inbounds nuw %struct.dt_iop_module_t, ptr %17, i32 0, i32 81
  %19 = load ptr, ptr %18, align 16, !tbaa !31
  store ptr %19, ptr %7, align 8, !tbaa !30
  call void @llvm.lifetime.start.p0(i64 8, ptr %8) #9
  %20 = load ptr, ptr %3, align 8, !tbaa !6
  %21 = getelementptr inbounds nuw %struct.dt_iop_module_t, ptr %20, i32 0, i32 106
  %22 = load ptr, ptr %21, align 16, !tbaa !34
  %23 = getelementptr inbounds nuw %struct.dt_iop_module_so_t, ptr %22, i32 0, i32 54
  %24 = load ptr, ptr %23, align 8, !tbaa !35
  %25 = load ptr, ptr %4, align 8, !tbaa !11
  %26 = call ptr %24(ptr noundef %25)
  store ptr %26, ptr %8, align 8, !tbaa !39
  call void @llvm.lifetime.start.p0(i64 8, ptr %9) #9
  %27 = load ptr, ptr %3, align 8, !tbaa !6
  %28 = call ptr @dt_bauhaus_combobox_new(ptr noundef %27)
  store ptr %28, ptr %9, align 8, !tbaa !41
  call void @llvm.lifetime.start.p0(i64 8, ptr %10) #9
  store ptr null, ptr %10, align 8, !tbaa !11
  %29 = load ptr, ptr %8, align 8, !tbaa !39
  %30 = icmp ne ptr %29, null
  br i1 %30, label %31, label %136

31:                                               ; preds = %2
  %32 = load ptr, ptr %8, align 8, !tbaa !39
  %33 = getelementptr inbounds nuw %struct.dt_introspection_type_header_t, ptr %32, i32 0, i32 0
  %34 = load i32, ptr %33, align 8, !tbaa !42
  %35 = icmp eq i32 %34, 16
  br i1 %35, label %51, label %36

36:                                               ; preds = %31
  %37 = load ptr, ptr %8, align 8, !tbaa !39
  %38 = getelementptr inbounds nuw %struct.dt_introspection_type_header_t, ptr %37, i32 0, i32 0
  %39 = load i32, ptr %38, align 8, !tbaa !42
  %40 = icmp eq i32 %39, 10
  br i1 %40, label %51, label %41

41:                                               ; preds = %36
  %42 = load ptr, ptr %8, align 8, !tbaa !39
  %43 = getelementptr inbounds nuw %struct.dt_introspection_type_header_t, ptr %42, i32 0, i32 0
  %44 = load i32, ptr %43, align 8, !tbaa !42
  %45 = icmp eq i32 %44, 11
  br i1 %45, label %51, label %46

46:                                               ; preds = %41
  %47 = load ptr, ptr %8, align 8, !tbaa !39
  %48 = getelementptr inbounds nuw %struct.dt_introspection_type_header_t, ptr %47, i32 0, i32 0
  %49 = load i32, ptr %48, align 8, !tbaa !42
  %50 = icmp eq i32 %49, 14
  br i1 %50, label %51, label %136

51:                                               ; preds = %46, %41, %36, %31
  %52 = load ptr, ptr %9, align 8, !tbaa !41
  %53 = load ptr, ptr %6, align 8, !tbaa !30
  %54 = load ptr, ptr %8, align 8, !tbaa !39
  %55 = getelementptr inbounds nuw %struct.dt_introspection_type_header_t, ptr %54, i32 0, i32 6
  %56 = load i64, ptr %55, align 8, !tbaa !42
  %57 = getelementptr inbounds nuw i8, ptr %53, i64 %56
  %58 = load ptr, ptr %8, align 8, !tbaa !39
  %59 = getelementptr inbounds nuw %struct.dt_introspection_type_header_t, ptr %58, i32 0, i32 0
  %60 = load i32, ptr %59, align 8, !tbaa !42
  call void @dt_bauhaus_widget_set_field(ptr noundef %52, ptr noundef %57, i32 noundef %60)
  %61 = load ptr, ptr %8, align 8, !tbaa !39
  %62 = load ptr, ptr %5, align 8, !tbaa !11
  call void @_store_intro_section(ptr noundef %61, ptr noundef %62)
  %63 = load ptr, ptr %8, align 8, !tbaa !39
  %64 = getelementptr inbounds nuw %struct.dt_introspection_type_header_t, ptr %63, i32 0, i32 4
  %65 = load ptr, ptr %64, align 8, !tbaa !42
  %66 = load i8, ptr %65, align 1, !tbaa !42
  %67 = sext i8 %66 to i32
  %68 = icmp ne i32 %67, 0
  br i1 %68, label %69, label %74

69:                                               ; preds = %51
  %70 = load ptr, ptr %8, align 8, !tbaa !39
  %71 = getelementptr inbounds nuw %struct.dt_introspection_type_header_t, ptr %70, i32 0, i32 4
  %72 = load ptr, ptr %71, align 8, !tbaa !42
  %73 = call noalias ptr @g_strdup(ptr noundef %72)
  br label %77

74:                                               ; preds = %51
  %75 = load ptr, ptr %4, align 8, !tbaa !11
  %76 = call ptr @dt_util_str_replace(ptr noundef %75, ptr noundef @.str.2, ptr noundef @.str.3)
  br label %77

77:                                               ; preds = %74, %69
  %78 = phi ptr [ %73, %69 ], [ %76, %74 ]
  store ptr %78, ptr %10, align 8, !tbaa !11
  call void @llvm.lifetime.start.p0(i64 8, ptr %11) #9
  %79 = load ptr, ptr %9, align 8, !tbaa !41
  %80 = load ptr, ptr %5, align 8, !tbaa !11
  %81 = load ptr, ptr %10, align 8, !tbaa !11
  %82 = call ptr @dt_bauhaus_widget_set_label(ptr noundef %79, ptr noundef %80, ptr noundef %81)
  store ptr %82, ptr %11, align 8, !tbaa !60
  %83 = load ptr, ptr %8, align 8, !tbaa !39
  %84 = getelementptr inbounds nuw %struct.dt_introspection_type_header_t, ptr %83, i32 0, i32 0
  %85 = load i32, ptr %84, align 8, !tbaa !42
  %86 = icmp eq i32 %85, 14
  br i1 %86, label %87, label %99

87:                                               ; preds = %77
  %88 = load ptr, ptr %9, align 8, !tbaa !41
  %89 = call ptr @dcgettext(ptr noundef null, ptr noundef @.str.6, i32 noundef 5) #9
  call void @dt_bauhaus_combobox_add(ptr noundef %88, ptr noundef %89)
  %90 = load ptr, ptr %9, align 8, !tbaa !41
  %91 = call ptr @dcgettext(ptr noundef null, ptr noundef @.str.7, i32 noundef 5) #9
  call void @dt_bauhaus_combobox_add(ptr noundef %90, ptr noundef %91)
  %92 = load ptr, ptr %9, align 8, !tbaa !41
  %93 = load ptr, ptr %7, align 8, !tbaa !30
  %94 = load ptr, ptr %8, align 8, !tbaa !39
  %95 = getelementptr inbounds nuw %struct.dt_introspection_type_header_t, ptr %94, i32 0, i32 6
  %96 = load i64, ptr %95, align 8, !tbaa !42
  %97 = getelementptr inbounds nuw i8, ptr %93, i64 %96
  %98 = load i32, ptr %97, align 4, !tbaa !33
  call void @dt_bauhaus_combobox_set_default(ptr noundef %92, i32 noundef %98)
  br label %135

99:                                               ; preds = %77
  %100 = load ptr, ptr %8, align 8, !tbaa !39
  %101 = getelementptr inbounds nuw %struct.dt_introspection_type_header_t, ptr %100, i32 0, i32 0
  %102 = load i32, ptr %101, align 8, !tbaa !42
  %103 = icmp eq i32 %102, 16
  br i1 %103, label %104, label %134

104:                                              ; preds = %99
  %105 = load ptr, ptr %9, align 8, !tbaa !41
  %106 = load ptr, ptr %11, align 8, !tbaa !60
  %107 = load ptr, ptr %8, align 8, !tbaa !39
  %108 = getelementptr inbounds nuw %struct.dt_introspection_type_enum_t, ptr %107, i32 0, i32 2
  %109 = load ptr, ptr %108, align 8, !tbaa !42
  %110 = load ptr, ptr %8, align 8, !tbaa !39
  %111 = getelementptr inbounds nuw %struct.dt_introspection_type_enum_t, ptr %110, i32 0, i32 2
  %112 = load ptr, ptr %111, align 8, !tbaa !42
  %113 = getelementptr inbounds %struct.dt_introspection_type_enum_tuple_t, ptr %112, i64 0
  %114 = getelementptr inbounds nuw %struct.dt_introspection_type_enum_tuple_t, ptr %113, i32 0, i32 1
  %115 = load i32, ptr %114, align 8, !tbaa !61
  %116 = load ptr, ptr %8, align 8, !tbaa !39
  %117 = getelementptr inbounds nuw %struct.dt_introspection_type_enum_t, ptr %116, i32 0, i32 2
  %118 = load ptr, ptr %117, align 8, !tbaa !42
  %119 = load ptr, ptr %8, align 8, !tbaa !39
  %120 = getelementptr inbounds nuw %struct.dt_introspection_type_enum_t, ptr %119, i32 0, i32 1
  %121 = load i64, ptr %120, align 8, !tbaa !42
  %122 = sub i64 %121, 1
  %123 = getelementptr inbounds nuw %struct.dt_introspection_type_enum_tuple_t, ptr %118, i64 %122
  %124 = getelementptr inbounds nuw %struct.dt_introspection_type_enum_tuple_t, ptr %123, i32 0, i32 1
  %125 = load i32, ptr %124, align 8, !tbaa !61
  %126 = call i32 @dt_bauhaus_combobox_add_introspection(ptr noundef %105, ptr noundef %106, ptr noundef %109, i32 noundef %115, i32 noundef %125)
  %127 = load ptr, ptr %9, align 8, !tbaa !41
  %128 = load ptr, ptr %7, align 8, !tbaa !30
  %129 = load ptr, ptr %8, align 8, !tbaa !39
  %130 = getelementptr inbounds nuw %struct.dt_introspection_type_header_t, ptr %129, i32 0, i32 6
  %131 = load i64, ptr %130, align 8, !tbaa !42
  %132 = getelementptr inbounds nuw i8, ptr %128, i64 %131
  %133 = load i32, ptr %132, align 4, !tbaa !33
  call void @dt_bauhaus_combobox_set_default(ptr noundef %127, i32 noundef %133)
  br label %134

134:                                              ; preds = %104, %99
  br label %135

135:                                              ; preds = %134, %87
  call void @llvm.lifetime.end.p0(i64 8, ptr %11) #9
  br label %143

136:                                              ; preds = %46, %2
  %137 = load ptr, ptr %4, align 8, !tbaa !11
  %138 = call noalias ptr (ptr, ...) @g_strdup_printf(ptr noundef @.str.8, ptr noundef %137)
  store ptr %138, ptr %10, align 8, !tbaa !11
  %139 = load ptr, ptr %9, align 8, !tbaa !41
  %140 = load ptr, ptr %5, align 8, !tbaa !11
  %141 = load ptr, ptr %10, align 8, !tbaa !11
  %142 = call ptr @dt_bauhaus_widget_set_label(ptr noundef %139, ptr noundef %140, ptr noundef %141)
  br label %143

143:                                              ; preds = %136, %135
  %144 = load ptr, ptr %10, align 8, !tbaa !11
  call void @g_free(ptr noundef %144)
  %145 = load ptr, ptr %3, align 8, !tbaa !6
  %146 = getelementptr inbounds nuw %struct.dt_iop_module_t, ptr %145, i32 0, i32 90
  %147 = load ptr, ptr %146, align 16, !tbaa !47
  %148 = icmp ne ptr %147, null
  br i1 %148, label %153, label %149

149:                                              ; preds = %143
  %150 = call ptr @gtk_box_new(i32 noundef 1, i32 noundef 0)
  %151 = load ptr, ptr %3, align 8, !tbaa !6
  %152 = getelementptr inbounds nuw %struct.dt_iop_module_t, ptr %151, i32 0, i32 90
  store ptr %150, ptr %152, align 16, !tbaa !47
  br label %153

153:                                              ; preds = %149, %143
  %154 = load ptr, ptr %3, align 8, !tbaa !6
  %155 = getelementptr inbounds nuw %struct.dt_iop_module_t, ptr %154, i32 0, i32 90
  %156 = load ptr, ptr %155, align 16, !tbaa !47
  %157 = call i64 @gtk_box_get_type() #12
  %158 = call ptr @g_type_check_instance_cast(ptr noundef %156, i64 noundef %157)
  %159 = load ptr, ptr %9, align 8, !tbaa !41
  store ptr %159, ptr %12, align 8, !tbaa !30
  %160 = getelementptr inbounds ptr, ptr %12, i64 1
  store ptr inttoptr (i64 -1 to ptr), ptr %160, align 8, !tbaa !30
  %161 = getelementptr inbounds [2 x ptr], ptr %12, i64 0, i64 0
  %162 = call ptr @dt_gui_box_add(ptr noundef @.str.5, i32 noundef 233, ptr noundef @__FUNCTION__.dt_bauhaus_combobox_from_params, ptr noundef %158, ptr noundef %161)
  %163 = load ptr, ptr %9, align 8, !tbaa !41
  call void @llvm.lifetime.end.p0(i64 8, ptr %10) #9
  call void @llvm.lifetime.end.p0(i64 8, ptr %9) #9
  call void @llvm.lifetime.end.p0(i64 8, ptr %8) #9
  call void @llvm.lifetime.end.p0(i64 8, ptr %7) #9
  call void @llvm.lifetime.end.p0(i64 8, ptr %6) #9
  call void @llvm.lifetime.end.p0(i64 8, ptr %5) #9
  ret ptr %163
}