; Function Attrs: nounwind uwtable
define ptr @dt_bauhaus_combobox_from_params(ptr noundef %0, ptr noundef %1) local_unnamed_addr #0 {
  %3 = alloca [2 x ptr], align 8
  %4 = load i32, ptr %0, align 16, !tbaa !6
  %.not.i = icmp eq i32 %4, 8
  br i1 %.not.i, label %5, label %_section_from_package.exit

5:                                                ; preds = %2
  %6 = getelementptr inbounds nuw i8, ptr %0, i64 8
  %7 = load ptr, ptr %6, align 8, !tbaa !27
  %8 = getelementptr inbounds nuw i8, ptr %0, i64 16
  %9 = load ptr, ptr %8, align 8, !tbaa !30
  br label %_section_from_package.exit

_section_from_package.exit:                       ; preds = %2, %5
  %.052 = phi ptr [ %7, %5 ], [ %0, %2 ]
  %.0.i = phi ptr [ %9, %5 ], [ null, %2 ]
  %10 = getelementptr inbounds nuw i8, ptr %.052, i64 680
  %11 = load ptr, ptr %10, align 8, !tbaa !31
  %12 = getelementptr inbounds nuw i8, ptr %.052, i64 688
  %13 = load ptr, ptr %12, align 16, !tbaa !32
  %14 = getelementptr inbounds nuw i8, ptr %.052, i64 944
  %15 = load ptr, ptr %14, align 16, !tbaa !34
  %16 = getelementptr inbounds nuw i8, ptr %15, i64 472
  %17 = load ptr, ptr %16, align 8, !tbaa !35
  %18 = tail call ptr %17(ptr noundef %1) #11
  %19 = tail call ptr @dt_bauhaus_combobox_new(ptr noundef %.052) #11
  %.not = icmp eq ptr %18, null
  br i1 %.not, label %72, label %20

20:                                               ; preds = %_section_from_package.exit
  %21 = load i32, ptr %18, align 8, !tbaa !39
  switch i32 %21, label %72 [
    i32 16, label %22
    i32 10, label %22
    i32 11, label %22
    i32 14, label %22
  ]

22:                                               ; preds = %20, %20, %20, %20
  %23 = getelementptr inbounds nuw i8, ptr %18, i64 48
  %24 = load i64, ptr %23, align 8, !tbaa !39
  %25 = getelementptr inbounds nuw i8, ptr %11, i64 %24
  tail call void @dt_bauhaus_widget_set_field(ptr noundef %19, ptr noundef %25, i32 noundef %21) #11
  %.not.i46 = icmp eq ptr %.0.i, null
  br i1 %.not.i46, label %_store_intro_section.exit, label %26

26:                                               ; preds = %22
  %27 = getelementptr inbounds nuw i8, ptr %18, i64 56
  %28 = load ptr, ptr %27, align 8, !tbaa !39
  %29 = getelementptr inbounds nuw i8, ptr %28, i64 448
  %30 = load ptr, ptr %29, align 8, !tbaa !45
  %31 = tail call ptr %30() #11
  %32 = getelementptr inbounds nuw i8, ptr %31, i64 48
  %33 = load ptr, ptr %32, align 8, !tbaa !46
  %.not7.i = icmp eq ptr %33, null
  br i1 %.not7.i, label %34, label %36

34:                                               ; preds = %26
  %35 = tail call ptr @g_hash_table_new(ptr noundef null, ptr noundef null) #11
  store ptr %35, ptr %32, align 8, !tbaa !46
  br label %36

36:                                               ; preds = %34, %26
  %37 = phi ptr [ %35, %34 ], [ %33, %26 ]
  %38 = load i64, ptr %23, align 8, !tbaa !39
  %39 = inttoptr i64 %38 to ptr
  %40 = tail call i32 @g_hash_table_insert(ptr noundef %37, ptr noundef %39, ptr noundef nonnull %.0.i) #11
  br label %_store_intro_section.exit

_store_intro_section.exit:                        ; preds = %22, %36
  %41 = getelementptr inbounds nuw i8, ptr %18, i64 32
  %42 = load ptr, ptr %41, align 8, !tbaa !39
  %43 = load i8, ptr %42, align 1, !tbaa !39
  %.not44 = icmp eq i8 %43, 0
  br i1 %.not44, label %46, label %44

44:                                               ; preds = %_store_intro_section.exit
  %45 = tail call noalias ptr @g_strdup(ptr noundef nonnull %42) #11
  br label %48

46:                                               ; preds = %_store_intro_section.exit
  %47 = tail call ptr @dt_util_str_replace(ptr noundef %1, ptr noundef nonnull @.str.2, ptr noundef nonnull @.str.3) #11
  br label %48

48:                                               ; preds = %46, %44
  %49 = phi ptr [ %45, %44 ], [ %47, %46 ]
  %50 = tail call ptr @dt_bauhaus_widget_set_label(ptr noundef %19, ptr noundef %.0.i, ptr noundef %49) #11
  %51 = load i32, ptr %18, align 8, !tbaa !39
  switch i32 %51, label %75 [
    i32 14, label %52
    i32 16, label %58
  ]

52:                                               ; preds = %48
  %53 = tail call ptr @dcgettext(ptr noundef null, ptr noundef nonnull @.str.6, i32 noundef 5) #11
  tail call void @dt_bauhaus_combobox_add(ptr noundef %19, ptr noundef %53) #11
  %54 = tail call ptr @dcgettext(ptr noundef null, ptr noundef nonnull @.str.7, i32 noundef 5) #11
  tail call void @dt_bauhaus_combobox_add(ptr noundef %19, ptr noundef %54) #11
  %55 = load i64, ptr %23, align 8, !tbaa !39
  %56 = getelementptr inbounds nuw i8, ptr %13, i64 %55
  %57 = load i32, ptr %56, align 4, !tbaa !42
  tail call void @dt_bauhaus_combobox_set_default(ptr noundef %19, i32 noundef %57) #11
  br label %75

58:                                               ; preds = %48
  %59 = getelementptr inbounds nuw i8, ptr %18, i64 72
  %60 = load ptr, ptr %59, align 8, !tbaa !39
  %61 = getelementptr inbounds nuw i8, ptr %60, i64 8
  %62 = load i32, ptr %61, align 8, !tbaa !49
  %63 = getelementptr inbounds nuw i8, ptr %18, i64 64
  %64 = load i64, ptr %63, align 8, !tbaa !39
  %65 = getelementptr %struct.dt_introspection_type_enum_tuple_t, ptr %60, i64 %64
  %66 = getelementptr i8, ptr %65, i64 -16
  %67 = load i32, ptr %66, align 8, !tbaa !49
  %68 = tail call i32 @dt_bauhaus_combobox_add_introspection(ptr noundef %19, ptr noundef %50, ptr noundef %60, i32 noundef %62, i32 noundef %67) #11
  %69 = load i64, ptr %23, align 8, !tbaa !39
  %70 = getelementptr inbounds nuw i8, ptr %13, i64 %69
  %71 = load i32, ptr %70, align 4, !tbaa !42
  tail call void @dt_bauhaus_combobox_set_default(ptr noundef %19, i32 noundef %71) #11
  br label %75

72:                                               ; preds = %20, %_section_from_package.exit
  %73 = tail call noalias ptr (ptr, ...) @g_strdup_printf(ptr noundef nonnull @.str.8, ptr noundef %1) #11
  %74 = tail call ptr @dt_bauhaus_widget_set_label(ptr noundef %19, ptr noundef %.0.i, ptr noundef %73) #11
  br label %75

75:                                               ; preds = %52, %58, %48, %72
  %.0 = phi ptr [ %73, %72 ], [ %49, %48 ], [ %49, %58 ], [ %49, %52 ]
  tail call void @g_free(ptr noundef %.0) #11
  %76 = getelementptr inbounds nuw i8, ptr %.052, i64 816
  %77 = load ptr, ptr %76, align 16, !tbaa !47
  %.not45 = icmp eq ptr %77, null
  br i1 %.not45, label %78, label %80

78:                                               ; preds = %75
  %79 = tail call ptr @gtk_box_new(i32 noundef 1, i32 noundef 0) #11
  store ptr %79, ptr %76, align 16, !tbaa !47
  br label %80

80:                                               ; preds = %78, %75
  %81 = phi ptr [ %79, %78 ], [ %77, %75 ]
  %82 = tail call i64 @gtk_box_get_type() #14
  %83 = tail call ptr @g_type_check_instance_cast(ptr noundef %81, i64 noundef %82) #11
  store ptr %19, ptr %3, align 8, !tbaa !48
  %84 = getelementptr inbounds nuw i8, ptr %3, i64 8
  store ptr inttoptr (i64 -1 to ptr), ptr %84, align 8, !tbaa !48
  %85 = call ptr @dt_gui_box_add(ptr noundef nonnull @.str.5, i32 noundef 233, ptr noundef nonnull @__FUNCTION__.dt_bauhaus_combobox_from_params, ptr noundef %83, ptr noundef nonnull %3) #11
  ret ptr %19
}